; Function Attrs: nounwind sspstrong uwtable
define internal fastcc range(i32 0, 2) i32 @parse_mday(i64 noundef %0, i64 noundef %1) unnamed_addr #0 {
  %3 = load i64, ptr @parse_mday.pat, align 8, !tbaa !6
  %4 = icmp eq i64 %3, 4
  br i1 %4, label %5, label %8

5:                                                ; preds = %2
  %6 = tail call i64 @rb_reg_new(ptr noundef nonnull @parse_mday.pat_source, i64 noundef 27, i32 noundef 1) #13
  %7 = tail call i64 @rb_obj_freeze(i64 noundef %6) #13
  tail call void @rb_gc_register_mark_object(i64 noundef %6) #13
  store i64 %6, ptr @parse_mday.pat, align 8, !tbaa !6
  br label %8

8:                                                ; preds = %5, %2
  %9 = tail call i64 @rb_str_new_static(ptr noundef nonnull @.str.7, i64 noundef 1) #13
  %10 = load i64, ptr @parse_mday.pat, align 8, !tbaa !6
  %11 = tail call fastcc i32 @subx(i64 noundef %0, i64 noundef %9, i64 noundef %10, i64 noundef %1, ptr noundef nonnull @parse_mday_cb)
  ret i32 %11
}